target datalayout = "e-m:e-p270:32:32-p271:32:32-p272:64:64-i64:64-i128:128-f80:128-n8:16:32:64-S128"
target triple = "x86_64-pc-linux-gnu"

%struct._asn1_ctx_t = type { i32, i32, i8, ptr, ptr, ptr, ptr, ptr, %struct.anon, %struct.anon.2, %struct.anon.3, ptr }
%struct.anon = type { i32, i8, i8, i8, ptr, ptr, i32, i32, ptr, ptr, ptr, %union.anon }
%union.anon = type { %struct.anon.0 }
%struct.anon.0 = type { ptr }
%struct.anon.2 = type { ptr, ptr, ptr }
%struct.anon.3 = type { i32, i8, ptr, i32, i32, ptr, ptr, ptr, %union.anon.4 }
%union.anon.4 = type { %struct.anon.5 }
%struct.anon.5 = type { ptr }

@hf_f1ap_SIB20_message_PDU = internal global i32 0, align 4
@ett_f1ap_SIB20_message = internal global i32 0, align 4

; Function Attrs: null_pointer_is_valid sspstrong uwtable
define internal i32 @dissect_f1ap_SIB20_message(ptr noundef %0, i32 noundef %1, ptr noundef %2, ptr noundef %3, i32 noundef %4) #0 {
  %6 = alloca ptr, align 8
  %7 = alloca i32, align 4
  %8 = alloca ptr, align 8
  %9 = alloca ptr, align 8
  %10 = alloca i32, align 4
  %11 = alloca ptr, align 8
  %12 = alloca ptr, align 8
  store ptr %0, ptr %6, align 8
  store i32 %1, ptr %7, align 4
  store ptr %2, ptr %8, align 8
  store ptr %3, ptr %9, align 8
  store i32 %4, ptr %10, align 4
  call void @llvm.lifetime.start.p0(i64 8, ptr %11) #5
  store ptr null, ptr %11, align 8
  %13 = load ptr, ptr %6, align 8
  %14 = load i32, ptr %7, align 4
  %15 = load ptr, ptr %8, align 8
  %16 = load ptr, ptr %9, align 8
  %17 = load i32, ptr %10, align 4
  %18 = call i32 @dissect_per_octet_string(ptr noundef %13, i32 noundef %14, ptr noundef %15, ptr noundef %16, i32 noundef %17, i32 noundef -1, i32 noundef -1, i1 noundef zeroext false, ptr noundef %11)
  store i32 %18, ptr %7, align 4
  %19 = load ptr, ptr %11, align 8
  %20 = icmp ne ptr %19, null
  br i1 %20, label %21, label %33

21:                                               ; preds = %5
  call void @llvm.lifetime.start.p0(i64 8, ptr %12) #5
  %22 = load ptr, ptr %8, align 8
  %23 = getelementptr inbounds nuw %struct._asn1_ctx_t, ptr %22, i32 0, i32 4
  %24 = load ptr, ptr %23, align 8
  %25 = load i32, ptr @ett_f1ap_SIB20_message, align 4
  %26 = call ptr @proto_item_add_subtree(ptr noundef %24, i32 noundef %25)
  store ptr %26, ptr %12, align 8
  %27 = load ptr, ptr %11, align 8
  %28 = load ptr, ptr %8, align 8
  %29 = getelementptr inbounds nuw %struct._asn1_ctx_t, ptr %28, i32 0, i32 3
  %30 = load ptr, ptr %29, align 8
  %31 = load ptr, ptr %12, align 8
  %32 = call i32 @dissect_nr_rrc_SIB20_r17_PDU(ptr noundef %27, ptr noundef %30, ptr noundef %31, ptr noundef null)
  call void @llvm.lifetime.end.p0(i64 8, ptr %12) #5
  br label %33

33:                                               ; preds = %21, %5
  %34 = load i32, ptr %7, align 4
  call void @llvm.lifetime.end.p0(i64 8, ptr %11) #5
  ret i32 %34
}

; Function Attrs: null_pointer_is_valid sspstrong uwtable
define internal i32 @dissect_SIB20_message_PDU(ptr noundef %0, ptr noundef %1, ptr noundef %2, ptr noundef %3) #0 {
  %5 = alloca ptr, align 8
  %6 = alloca ptr, align 8
  %7 = alloca ptr, align 8
  %8 = alloca ptr, align 8
  %9 = alloca i32, align 4
  %10 = alloca %struct._asn1_ctx_t, align 8
  store ptr %0, ptr %5, align 8
  store ptr %1, ptr %6, align 8
  store ptr %2, ptr %7, align 8
  store ptr %3, ptr %8, align 8
  call void @llvm.lifetime.start.p0(i64 4, ptr %9) #5
  store i32 0, ptr %9, align 4
  call void @llvm.lifetime.start.p0(i64 208, ptr %10) #5
  %11 = load ptr, ptr %6, align 8
  call void @asn1_ctx_init(ptr noundef %10, i32 noundef 1, i1 noundef zeroext true, ptr noundef %11)
  %12 = load ptr, ptr %5, align 8
  %13 = load i32, ptr %9, align 4
  %14 = load ptr, ptr %7, align 8
  %15 = load i32, ptr @hf_f1ap_SIB20_message_PDU, align 4
  %16 = call i32 @dissect_f1ap_SIB20_message(ptr noundef %12, i32 noundef %13, ptr noundef %10, ptr noundef %14, i32 noundef %15)
  store i32 %16, ptr %9, align 4
  %17 = load i32, ptr %9, align 4
  %18 = add i32 %17, 7
  store i32 %18, ptr %9, align 4
  %19 = load i32, ptr %9, align 4
  %20 = ashr i32 %19, 3
  store i32 %20, ptr %9, align 4
  %21 = load i32, ptr %9, align 4
  call void @llvm.lifetime.end.p0(i64 208, ptr %10) #5
  call void @llvm.lifetime.end.p0(i64 4, ptr %9) #5
  ret i32 %21
}